; ModuleID = '31/596.c'
source_filename = "31/596.c"
target datalayout = "e-m:e-p270:32:32-p271:32:32-p272:64:64-i64:64-f80:128-n8:16:32:64-S128"
target triple = "x86_64-pc-linux-gnu"

%struct.student = type { [9 x i8], [20 x i8], i8, i32, float, [20 x i8], %struct.student* }

@.str = private unnamed_addr constant [3 x i8] c"%s\00", align 1
@.str.1 = private unnamed_addr constant [15 x i8] c"%s %c %d %g %s\00", align 1
@.str.2 = private unnamed_addr constant [19 x i8] c"%s %s %c %d %g %s\0A\00", align 1

; Function Attrs: noinline nounwind uwtable
define dso_local void @main() #0 {
  %1 = alloca i32, align 4
  %2 = alloca i32, align 4
  %3 = alloca %struct.student*, align 8
  %4 = alloca %struct.student*, align 8
  %5 = alloca %struct.student*, align 8
  store i32 1, i32* %1, align 4
  store i32 1, i32* %2, align 4
  br label %6

6:                                                ; preds = %48, %0
  %7 = call noalias i8* @malloc(i64 100) #3
  %8 = bitcast i8* %7 to %struct.student*
  store %struct.student* %8, %struct.student** %4, align 8
  %9 = load %struct.student*, %struct.student** %4, align 8
  %10 = getelementptr inbounds %struct.student, %struct.student* %9, i32 0, i32 0
  %11 = getelementptr inbounds [9 x i8], [9 x i8]* %10, i64 0, i64 0
  %12 = call i32 (i8*, ...) @__isoc99_scanf(i8* getelementptr inbounds ([3 x i8], [3 x i8]* @.str, i64 0, i64 0), i8* %11)
  %13 = load %struct.student*, %struct.student** %4, align 8
  %14 = getelementptr inbounds %struct.student, %struct.student* %13, i32 0, i32 0
  %15 = getelementptr inbounds [9 x i8], [9 x i8]* %14, i64 0, i64 0
  %16 = load i8, i8* %15, align 8
  %17 = sext i8 %16 to i32
  %18 = icmp eq i32 %17, 101
  br i1 %18, label %19, label %20

19:                                               ; preds = %6
  br label %51

20:                                               ; preds = %6
  %21 = load %struct.student*, %struct.student** %4, align 8
  %22 = getelementptr inbounds %struct.student, %struct.student* %21, i32 0, i32 1
  %23 = getelementptr inbounds [20 x i8], [20 x i8]* %22, i64 0, i64 0
  %24 = load %struct.student*, %struct.student** %4, align 8
  %25 = getelementptr inbounds %struct.student, %struct.student* %24, i32 0, i32 2
  %26 = load %struct.student*, %struct.student** %4, align 8
  %27 = getelementptr inbounds %struct.student, %struct.student* %26, i32 0, i32 3
  %28 = load %struct.student*, %struct.student** %4, align 8
  %29 = getelementptr inbounds %struct.student, %struct.student* %28, i32 0, i32 4
  %30 = load %struct.student*, %struct.student** %4, align 8
  %31 = getelementptr inbounds %struct.student, %struct.student* %30, i32 0, i32 5
  %32 = getelementptr inbounds [20 x i8], [20 x i8]* %31, i64 0, i64 0
  %33 = call i32 (i8*, ...) @__isoc99_scanf(i8* getelementptr inbounds ([15 x i8], [15 x i8]* @.str.1, i64 0, i64 0), i8* %23, i8* %25, i32* %27, float* %29, i8* %32)
  %34 = load i32, i32* %1, align 4
  %35 = icmp eq i32 %34, 1
  br i1 %35, label %36, label %40

36:                                               ; preds = %20
  %37 = load %struct.student*, %struct.student** %4, align 8
  %38 = getelementptr inbounds %struct.student, %struct.student* %37, i32 0, i32 6
  store %struct.student* null, %struct.student** %38, align 8
  %39 = load %struct.student*, %struct.student** %4, align 8
  store %struct.student* %39, %struct.student** %3, align 8
  br label %45

40:                                               ; preds = %20
  %41 = load %struct.student*, %struct.student** %3, align 8
  %42 = load %struct.student*, %struct.student** %4, align 8
  %43 = getelementptr inbounds %struct.student, %struct.student* %42, i32 0, i32 6
  store %struct.student* %41, %struct.student** %43, align 8
  %44 = load %struct.student*, %struct.student** %4, align 8
  store %struct.student* %44, %struct.student** %3, align 8
  br label %45

45:                                               ; preds = %40, %36
  %46 = load i32, i32* %1, align 4
  %47 = add nsw i32 %46, 1
  store i32 %47, i32* %1, align 4
  br label %48

48:                                               ; preds = %45
  %49 = load i32, i32* %2, align 4
  %50 = add nsw i32 %49, 1
  store i32 %50, i32* %2, align 4
  br label %6

51:                                               ; preds = %19
  %52 = load %struct.student*, %struct.student** %3, align 8
  store %struct.student* %52, %struct.student** %5, align 8
  br label %53

53:                                               ; preds = %56, %51
  %54 = load %struct.student*, %struct.student** %5, align 8
  %55 = icmp ne %struct.student* %54, null
  br i1 %55, label %56, label %81

56:                                               ; preds = %53
  %57 = load %struct.student*, %struct.student** %5, align 8
  %58 = getelementptr inbounds %struct.student, %struct.student* %57, i32 0, i32 0
  %59 = getelementptr inbounds [9 x i8], [9 x i8]* %58, i64 0, i64 0
  %60 = load %struct.student*, %struct.student** %5, align 8
  %61 = getelementptr inbounds %struct.student, %struct.student* %60, i32 0, i32 1
  %62 = getelementptr inbounds [20 x i8], [20 x i8]* %61, i64 0, i64 0
  %63 = load %struct.student*, %struct.student** %5, align 8
  %64 = getelementptr inbounds %struct.student, %struct.student* %63, i32 0, i32 2
  %65 = load i8, i8* %64, align 1
  %66 = sext i8 %65 to i32
  %67 = load %struct.student*, %struct.student** %5, align 8
  %68 = getelementptr inbounds %struct.student, %struct.student* %67, i32 0, i32 3
  %69 = load i32, i32* %68, align 8
  %70 = load %struct.student*, %struct.student** %5, align 8
  %71 = getelementptr inbounds %struct.student, %struct.student* %70, i32 0, i32 4
  %72 = load float, float* %71, align 4
  %73 = fpext float %72 to double
  %74 = load %struct.student*, %struct.student** %5, align 8
  %75 = getelementptr inbounds %struct.student, %struct.student* %74, i32 0, i32 5
  %76 = getelementptr inbounds [20 x i8], [20 x i8]* %75, i64 0, i64 0
  %77 = call i32 (i8*, ...) @printf(i8* getelementptr inbounds ([19 x i8], [19 x i8]* @.str.2, i64 0, i64 0), i8* %59, i8* %62, i32 %66, i32 %69, double %73, i8* %76)
  %78 = load %struct.student*, %struct.student** %5, align 8
  %79 = getelementptr inbounds %struct.student, %struct.student* %78, i32 0, i32 6
  %80 = load %struct.student*, %struct.student** %79, align 8
  store %struct.student* %80, %struct.student** %5, align 8
  br label %53

81:                                               ; preds = %53
  ret void
}

; Function Attrs: nounwind
declare dso_local noalias i8* @malloc(i64) #1

declare dso_local i32 @__isoc99_scanf(i8*, ...) #2

declare dso_local i32 @printf(i8*, ...) #2


!llvm.module.flags = !{!0}
!llvm.ident = !{!1}

!0 = !{i32 1, !"wchar_size", i32 4}
!1 = !{!"clang version 10.0.0-4ubuntu1 "}
